(lp0
V 
p1
aVe
p2
aVt
p3
aVo
p4
aVa
p5
aVh
p6
aVs
p7
aVn
p8
aVr
p9
aVi
p10
aV\u000a
p11
aVl
p12
aVd
p13
aVu
p14
aVm
p15
aVy
p16
aV,
p17
aVw
p18
aVf
p19
aVc
p20
aVg
p21
aVI
p22
aV:
p23
aVb
p24
aVp
p25
aVA
p26
aV.
p27
aVv
p28
aVT
p29
aVk
p30
aV'
p31
aVS
p32
aVE
p33
aVO
p34
aVN
p35
aVR
p36
aVL
p37
aV;
p38
aVC
p39
aVH
p40
aVW
p41
aVM
p42
aVU
p43
aVB
p44
aVD
p45
aV?
p46
aVF
p47
aV!
p48
aV-
p49
aVG
p50
aVP
p51
aVY
p52
aVK
p53
aVV
p54
aVj
p55
aVq
p56
aVx
p57
aVJ
p58
aVz
p59
aVQ
p60
aVZ
p61
aVX
p62
aV3
p63
aV&
p64
aV[
p65
aV]
p66
aV$
p67
a.